ARM GAS  /var/folders/bm/0jsfsl512531b6m7ntlrg6_c0000gn/T//cclGJZGf.s 			page 1


   1              		.cpu cortex-m4
   2              		.eabi_attribute 27, 1
   3              		.eabi_attribute 28, 1
   4              		.eabi_attribute 20, 1
   5              		.eabi_attribute 21, 1
   6              		.eabi_attribute 23, 3
   7              		.eabi_attribute 24, 1
   8              		.eabi_attribute 25, 1
   9              		.eabi_attribute 26, 1
  10              		.eabi_attribute 30, 2
  11              		.eabi_attribute 34, 1
  12              		.eabi_attribute 18, 4
  13              		.file	"sound_detection.c"
  14              		.text
  15              	.Ltext0:
  16              		.cfi_sections	.debug_frame
  17              		.section	.text.process_audio_data,"ax",%progbits
  18              		.align	1
  19              		.p2align 4,,15
  20              		.global	process_audio_data
  21              		.syntax unified
  22              		.thumb
  23              		.thumb_func
  24              		.fpu fpv4-sp-d16
  25              		.type	process_audio_data, %function
  26              	process_audio_data:
  27              	.LFB290:
  28              		.file 1 "sound_detection.c"
  29              		.loc 1 33 0
  30              		.cfi_startproc
  31              		@ args = 0, pretend = 0, frame = 8
  32              		@ frame_needed = 0, uses_anonymous_args = 0
  33              	.LVL0:
  34 0000 2DE9F043 		push	{r4, r5, r6, r7, r8, r9, lr}
  35              		.cfi_def_cfa_offset 28
  36              		.cfi_offset 4, -28
  37              		.cfi_offset 5, -24
  38              		.cfi_offset 6, -20
  39              		.cfi_offset 7, -16
  40              		.cfi_offset 8, -12
  41              		.cfi_offset 9, -8
  42              		.cfi_offset 14, -4
  43 0004 4D4E     		ldr	r6, .L21
  44 0006 4E4F     		ldr	r7, .L21+4
  45 0008 3368     		ldr	r3, [r6]
  46 000a 3A88     		ldrh	r2, [r7]
  47 000c 83B0     		sub	sp, sp, #12
  48              		.cfi_def_cfa_offset 40
  49              		.loc 1 33 0
  50 000e 0193     		str	r3, [sp, #4]
  51              	.LVL1:
  52              	.LBB11:
  53              		.loc 1 46 0
  54 0010 0029     		cmp	r1, #0
  55 0012 62D0     		beq	.L2
  56 0014 DFF82CE1 		ldr	lr, .L21+8
  57 0018 DFF82CC1 		ldr	ip, .L21+12
ARM GAS  /var/folders/bm/0jsfsl512531b6m7ntlrg6_c0000gn/T//cclGJZGf.s 			page 2


  58              		.loc 1 54 0
  59 001c 4FF00008 		mov	r8, #0
  60              		.loc 1 46 0
  61 0020 0024     		movs	r4, #0
  62 0022 04E0     		b	.L5
  63              	.LVL2:
  64              	.L3:
  65              		.loc 1 46 0 is_stmt 0 discriminator 2
  66 0024 0434     		adds	r4, r4, #4
  67              	.LVL3:
  68 0026 A4B2     		uxth	r4, r4
  69              	.LVL4:
  70 0028 A142     		cmp	r1, r4
  71 002a 40F28380 		bls	.L19
  72              	.LVL5:
  73              	.L5:
  74              		.loc 1 49 0 is_stmt 1
  75 002e 30F91430 		ldrsh	r3, [r0, r4, lsl #1]
  76 0032 07EE903A 		vmov	s15, r3	@ int
  77 0036 9500     		lsls	r5, r2, #2
  78 0038 F8EEE77A 		vcvt.f32.s32	s15, s15
  79 003c 0EEB0509 		add	r9, lr, r5
  80              		.loc 1 50 0
  81 0040 00EB4403 		add	r3, r0, r4, lsl #1
  82              		.loc 1 49 0
  83 0044 C9ED007A 		vstr.32	s15, [r9]
  84              		.loc 1 50 0
  85 0048 B3F90230 		ldrsh	r3, [r3, #2]
  86 004c 07EE903A 		vmov	s15, r3	@ int
  87              		.loc 1 54 0
  88 0050 531C     		adds	r3, r2, #1
  89 0052 9BB2     		uxth	r3, r3
  90 0054 9B00     		lsls	r3, r3, #2
  91              		.loc 1 57 0
  92 0056 0232     		adds	r2, r2, #2
  93              		.loc 1 54 0
  94 0058 0EEB0309 		add	r9, lr, r3
  95              		.loc 1 50 0
  96 005c F8EEE77A 		vcvt.f32.s32	s15, s15
  97              		.loc 1 57 0
  98 0060 92B2     		uxth	r2, r2
  99              		.loc 1 55 0
 100 0062 6344     		add	r3, r3, ip
 101              		.loc 1 50 0
 102 0064 6544     		add	r5, r5, ip
 103              		.loc 1 60 0
 104 0066 B2F5006F 		cmp	r2, #2048
 105              		.loc 1 50 0
 106 006a C5ED007A 		vstr.32	s15, [r5]
 107              		.loc 1 54 0
 108 006e C9F80080 		str	r8, [r9]	@ float
 109              		.loc 1 55 0
 110 0072 C3F80080 		str	r8, [r3]	@ float
 111              		.loc 1 60 0
 112 0076 D5D3     		bcc	.L3
 113 0078 3A80     		strh	r2, [r7]	@ movhi
 114              	.LVL6:
ARM GAS  /var/folders/bm/0jsfsl512531b6m7ntlrg6_c0000gn/T//cclGJZGf.s 			page 3


 115              	.L4:
 116              	.LBE11:
 117              	.LBB12:
 118              		.loc 1 72 0
 119 007a 3249     		ldr	r1, .L21+8
 120              	.LVL7:
 121 007c 4FF48060 		mov	r0, #1024
 122              	.LVL8:
 123 0080 FFF7FEFF 		bl	doFFT_optimized
 124              	.LVL9:
 125              		.loc 1 73 0
 126 0084 3049     		ldr	r1, .L21+12
 127 0086 4FF48060 		mov	r0, #1024
 128 008a FFF7FEFF 		bl	doFFT_optimized
 129              	.LVL10:
 130              		.loc 1 75 0
 131 008e 4FF48062 		mov	r2, #1024
 132 0092 2E49     		ldr	r1, .L21+16
 133 0094 2C48     		ldr	r0, .L21+12
 134 0096 FFF7FEFF 		bl	arm_cmplx_mag_f32
 135              	.LVL11:
 136              		.loc 1 77 0
 137 009a 0023     		movs	r3, #0
 138 009c 2C4A     		ldr	r2, .L21+20
 139              	.LBB13:
 140              	.LBB14:
 141              		.loc 1 112 0
 142 009e 9FED2D7A 		vldr.32	s14, .L21+24
 143              	.LBE14:
 144              	.LBE13:
 145              		.loc 1 77 0
 146 00a2 3B80     		strh	r3, [r7]	@ movhi
 147              	.LVL12:
 148              	.LBB18:
 149              	.LBB16:
 150              		.loc 1 113 0
 151 00a4 4FF0FF31 		mov	r1, #-1
 152              	.LBE16:
 153              	.LBE18:
 154              		.loc 1 77 0
 155 00a8 1423     		movs	r3, #20
 156              	.LVL13:
 157              	.L9:
 158              	.LBB19:
 159              	.LBB17:
 160              	.LBB15:
 161              		.loc 1 117 0
 162 00aa F2EC017A 		vldmia.32	r2!, {s15}
 163 00ae F4EEC77A 		vcmpe.f32	s15, s14
 164 00b2 F1EE10FA 		vmrs	APSR_nzcv, FPSCR
 165              	.LVL14:
 166              		.loc 1 119 0
 167 00b6 C8BF     		it	gt
 168 00b8 19B2     		sxthgt	r1, r3
 169              	.LVL15:
 170 00ba 03F10103 		add	r3, r3, #1
 171              	.LVL16:
ARM GAS  /var/folders/bm/0jsfsl512531b6m7ntlrg6_c0000gn/T//cclGJZGf.s 			page 4


 172              		.loc 1 118 0
 173 00be C8BF     		it	gt
 174 00c0 B0EE677A 		vmovgt.f32	s14, s15
 175              	.LVL17:
 176              		.loc 1 116 0
 177 00c4 292B     		cmp	r3, #41
 178 00c6 F0D1     		bne	.L9
 179              	.LVL18:
 180              	.LBE15:
 181              	.LBE17:
 182              	.LBE19:
 183              		.loc 1 83 0
 184 00c8 A1F11B03 		sub	r3, r1, #27
 185 00cc 9BB2     		uxth	r3, r3
 186 00ce 022B     		cmp	r3, #2
 187 00d0 0DD9     		bls	.L20
 188              		.loc 1 101 0
 189 00d2 214B     		ldr	r3, .L21+28
 190 00d4 0022     		movs	r2, #0
 191 00d6 1A70     		strb	r2, [r3]
 192              	.LBE12:
 193              		.loc 1 105 0
 194 00d8 02E0     		b	.L1
 195              	.LVL19:
 196              	.L2:
 197              		.loc 1 65 0
 198 00da B2F5006F 		cmp	r2, #2048
 199 00de CCD2     		bcs	.L4
 200              	.LVL20:
 201              	.L1:
 202              		.loc 1 105 0
 203 00e0 019A     		ldr	r2, [sp, #4]
 204 00e2 3368     		ldr	r3, [r6]
 205 00e4 9A42     		cmp	r2, r3
 206 00e6 27D1     		bne	.L17
 207 00e8 03B0     		add	sp, sp, #12
 208              		.cfi_remember_state
 209              		.cfi_def_cfa_offset 28
 210              		@ sp needed
 211 00ea BDE8F083 		pop	{r4, r5, r6, r7, r8, r9, pc}
 212              	.L20:
 213              		.cfi_restore_state
 214              	.LBB20:
 215              		.loc 1 89 0
 216 00ee CB00     		lsls	r3, r1, #3
 217              		.loc 1 88 0
 218 00f0 1448     		ldr	r0, .L21+8
 219              		.loc 1 91 0
 220 00f2 154A     		ldr	r2, .L21+12
 221              		.loc 1 88 0
 222 00f4 194C     		ldr	r4, .L21+32
 223              		.loc 1 89 0
 224 00f6 0433     		adds	r3, r3, #4
 225              		.loc 1 88 0
 226 00f8 C900     		lsls	r1, r1, #3
 227              		.loc 1 89 0
 228 00fa C518     		adds	r5, r0, r3
ARM GAS  /var/folders/bm/0jsfsl512531b6m7ntlrg6_c0000gn/T//cclGJZGf.s 			page 5


 229              		.loc 1 88 0
 230 00fc 0844     		add	r0, r0, r1
 231              		.loc 1 91 0
 232 00fe 1144     		add	r1, r1, r2
 233              		.loc 1 92 0
 234 0100 1344     		add	r3, r3, r2
 235              		.loc 1 88 0
 236 0102 0268     		ldr	r2, [r0]	@ float
 237              		.loc 1 89 0
 238 0104 D5F800C0 		ldr	ip, [r5]	@ float
 239              		.loc 1 88 0
 240 0108 2260     		str	r2, [r4]	@ float
 241              		.loc 1 91 0
 242 010a 0D68     		ldr	r5, [r1]	@ float
 243              		.loc 1 95 0
 244 010c 0199     		ldr	r1, [sp, #4]
 245 010e 3268     		ldr	r2, [r6]
 246              		.loc 1 92 0
 247 0110 1F68     		ldr	r7, [r3]	@ float
 248              		.loc 1 85 0
 249 0112 1148     		ldr	r0, .L21+28
 250              		.loc 1 91 0
 251 0114 124B     		ldr	r3, .L21+36
 252              		.loc 1 89 0
 253 0116 C4F804C0 		str	ip, [r4, #4]	@ float
 254              		.loc 1 95 0
 255 011a 9142     		cmp	r1, r2
 256              		.loc 1 85 0
 257 011c 4FF00104 		mov	r4, #1
 258              		.loc 1 92 0
 259 0120 5F60     		str	r7, [r3, #4]	@ float
 260              		.loc 1 91 0
 261 0122 1D60     		str	r5, [r3]	@ float
 262              		.loc 1 85 0
 263 0124 0470     		strb	r4, [r0]
 264              		.loc 1 95 0
 265 0126 07D1     		bne	.L17
 266 0128 0A20     		movs	r0, #10
 267              	.LBE20:
 268              		.loc 1 105 0
 269 012a 03B0     		add	sp, sp, #12
 270              		.cfi_remember_state
 271              		.cfi_def_cfa_offset 28
 272              		@ sp needed
 273 012c BDE8F043 		pop	{r4, r5, r6, r7, r8, r9, lr}
 274              		.cfi_restore 14
 275              		.cfi_restore 9
 276              		.cfi_restore 8
 277              		.cfi_restore 7
 278              		.cfi_restore 6
 279              		.cfi_restore 5
 280              		.cfi_restore 4
 281              		.cfi_def_cfa_offset 0
 282              	.LBB21:
 283              		.loc 1 95 0
 284 0130 FFF7FEBF 		b	chThdSleep
 285              	.LVL21:
ARM GAS  /var/folders/bm/0jsfsl512531b6m7ntlrg6_c0000gn/T//cclGJZGf.s 			page 6


 286              	.L19:
 287              		.cfi_restore_state
 288 0134 3A80     		strh	r2, [r7]	@ movhi
 289 0136 D3E7     		b	.L1
 290              	.LVL22:
 291              	.L17:
 292              	.LBE21:
 293              		.loc 1 105 0
 294 0138 FFF7FEFF 		bl	__stack_chk_fail
 295              	.LVL23:
 296              	.L22:
 297              		.align	2
 298              	.L21:
 299 013c 00000000 		.word	__stack_chk_guard
 300 0140 00000000 		.word	.LANCHOR0
 301 0144 00000000 		.word	micRight_cmplx_input
 302 0148 00000000 		.word	micLeft_cmplx_input
 303 014c 00000000 		.word	micLeft_output
 304 0150 50000000 		.word	micLeft_output+80
 305 0154 00401C46 		.word	1176256512
 306 0158 00000000 		.word	.LANCHOR1
 307 015c 00000000 		.word	.LANCHOR2
 308 0160 00000000 		.word	.LANCHOR3
 309              		.cfi_endproc
 310              	.LFE290:
 311              		.size	process_audio_data, .-process_audio_data
 312              		.section	.text.calculate_loudest_frequency,"ax",%progbits
 313              		.align	1
 314              		.p2align 4,,15
 315              		.global	calculate_loudest_frequency
 316              		.syntax unified
 317              		.thumb
 318              		.thumb_func
 319              		.fpu fpv4-sp-d16
 320              		.type	calculate_loudest_frequency, %function
 321              	calculate_loudest_frequency:
 322              	.LFB291:
 323              		.loc 1 111 0
 324              		.cfi_startproc
 325              		@ args = 0, pretend = 0, frame = 8
 326              		@ frame_needed = 0, uses_anonymous_args = 0
 327              	.LVL24:
 328 0000 00B5     		push	{lr}
 329              		.cfi_def_cfa_offset 4
 330              		.cfi_offset 14, -4
 331 0002 1149     		ldr	r1, .L32
 332              		.loc 1 112 0
 333 0004 9FED117A 		vldr.32	s14, .L32+4
 334              		.loc 1 111 0
 335 0008 0B68     		ldr	r3, [r1]
 336 000a 83B0     		sub	sp, sp, #12
 337              		.cfi_def_cfa_offset 16
 338 000c 00F15002 		add	r2, r0, #80
 339              		.loc 1 111 0
 340 0010 0193     		str	r3, [sp, #4]
 341              	.LVL25:
 342              		.loc 1 113 0
ARM GAS  /var/folders/bm/0jsfsl512531b6m7ntlrg6_c0000gn/T//cclGJZGf.s 			page 7


 343 0012 4FF0FF30 		mov	r0, #-1
 344              	.LVL26:
 345              		.loc 1 111 0
 346 0016 1423     		movs	r3, #20
 347              	.LVL27:
 348              	.L26:
 349              	.LBB22:
 350              		.loc 1 117 0
 351 0018 F2EC017A 		vldmia.32	r2!, {s15}
 352 001c F4EEC77A 		vcmpe.f32	s15, s14
 353 0020 F1EE10FA 		vmrs	APSR_nzcv, FPSCR
 354              	.LVL28:
 355              		.loc 1 119 0
 356 0024 C8BF     		it	gt
 357 0026 18B2     		sxthgt	r0, r3
 358              	.LVL29:
 359 0028 03F10103 		add	r3, r3, #1
 360              	.LVL30:
 361              		.loc 1 118 0
 362 002c C8BF     		it	gt
 363 002e B0EE677A 		vmovgt.f32	s14, s15
 364              	.LVL31:
 365              		.loc 1 116 0
 366 0032 292B     		cmp	r3, #41
 367 0034 F0D1     		bne	.L26
 368              	.LBE22:
 369              		.loc 1 123 0
 370 0036 019A     		ldr	r2, [sp, #4]
 371 0038 0B68     		ldr	r3, [r1]
 372 003a 9A42     		cmp	r2, r3
 373 003c 02D1     		bne	.L31
 374 003e 03B0     		add	sp, sp, #12
 375              		.cfi_remember_state
 376              		.cfi_def_cfa_offset 4
 377              		@ sp needed
 378 0040 5DF804FB 		ldr	pc, [sp], #4
 379              	.L31:
 380              		.cfi_restore_state
 381 0044 FFF7FEFF 		bl	__stack_chk_fail
 382              	.LVL32:
 383              	.L33:
 384              		.align	2
 385              	.L32:
 386 0048 00000000 		.word	__stack_chk_guard
 387 004c 00401C46 		.word	1176256512
 388              		.cfi_endproc
 389              	.LFE291:
 390              		.size	calculate_loudest_frequency, .-calculate_loudest_frequency
 391              		.global	__aeabi_f2d
 392              		.global	__aeabi_d2f
 393              		.section	.text.calculate_phase,"ax",%progbits
 394              		.align	1
 395              		.p2align 4,,15
 396              		.global	calculate_phase
 397              		.syntax unified
 398              		.thumb
 399              		.thumb_func
ARM GAS  /var/folders/bm/0jsfsl512531b6m7ntlrg6_c0000gn/T//cclGJZGf.s 			page 8


 400              		.fpu fpv4-sp-d16
 401              		.type	calculate_phase, %function
 402              	calculate_phase:
 403              	.LFB292:
 404              		.loc 1 126 0
 405              		.cfi_startproc
 406              		@ args = 0, pretend = 0, frame = 16
 407              		@ frame_needed = 0, uses_anonymous_args = 0
 408              		.loc 1 128 0
 409 0000 C0EE807A 		vdiv.f32	s15, s1, s0
 410              		.loc 1 126 0
 411 0004 10B5     		push	{r4, lr}
 412              		.cfi_def_cfa_offset 8
 413              		.cfi_offset 4, -8
 414              		.cfi_offset 14, -4
 415 0006 174C     		ldr	r4, .L41
 416 0008 2368     		ldr	r3, [r4]
 417 000a 2DED028B 		vpush.64	{d8}
 418              		.cfi_def_cfa_offset 16
 419              		.cfi_offset 80, -16
 420              		.cfi_offset 81, -12
 421 000e 84B0     		sub	sp, sp, #16
 422              		.cfi_def_cfa_offset 32
 423              		.loc 1 128 0
 424 0010 17EE900A 		vmov	r0, s15
 425              		.loc 1 126 0
 426 0014 0393     		str	r3, [sp, #12]
 427 0016 B0EE408A 		vmov.f32	s16, s0
 428              	.LVL33:
 429 001a 8DED000A 		vstr.32	s0, [sp]
 430 001e CDED010A 		vstr.32	s1, [sp, #4]
 431              		.loc 1 128 0
 432 0022 FFF7FEFF 		bl	__aeabi_f2d
 433              	.LVL34:
 434 0026 41EC100B 		vmov	d0, r0, r1
 435 002a FFF7FEFF 		bl	atan
 436              	.LVL35:
 437 002e 51EC100B 		vmov	r0, r1, d0
 438 0032 FFF7FEFF 		bl	__aeabi_d2f
 439              	.LVL36:
 440              		.loc 1 130 0
 441 0036 B5EEC08A 		vcmpe.f32	s16, #0
 442 003a F1EE10FA 		vmrs	APSR_nzcv, FPSCR
 443              		.loc 1 132 0
 444 003e 48BF     		it	mi
 445 0040 DFED097A 		vldrmi.32	s15, .L41+4
 446              		.loc 1 136 0
 447 0044 039A     		ldr	r2, [sp, #12]
 448 0046 2368     		ldr	r3, [r4]
 449              		.loc 1 128 0
 450 0048 00EE100A 		vmov	s0, r0
 451              	.LVL37:
 452              		.loc 1 132 0
 453 004c 48BF     		it	mi
 454 004e 30EE270A 		vaddmi.f32	s0, s0, s15
 455              	.LVL38:
 456              		.loc 1 136 0
ARM GAS  /var/folders/bm/0jsfsl512531b6m7ntlrg6_c0000gn/T//cclGJZGf.s 			page 9


 457 0052 9A42     		cmp	r2, r3
 458 0054 03D1     		bne	.L40
 459 0056 04B0     		add	sp, sp, #16
 460              		.cfi_remember_state
 461              		.cfi_def_cfa_offset 16
 462              		@ sp needed
 463 0058 BDEC028B 		vldm	sp!, {d8}
 464              		.cfi_restore 80
 465              		.cfi_restore 81
 466              		.cfi_def_cfa_offset 8
 467              	.LVL39:
 468 005c 10BD     		pop	{r4, pc}
 469              	.LVL40:
 470              	.L40:
 471              		.cfi_restore_state
 472 005e FFF7FEFF 		bl	__stack_chk_fail
 473              	.LVL41:
 474              	.L42:
 475 0062 00BF     		.align	2
 476              	.L41:
 477 0064 00000000 		.word	__stack_chk_guard
 478 0068 DB0F4940 		.word	1078530011
 479              		.cfi_endproc
 480              	.LFE292:
 481              		.size	calculate_phase, .-calculate_phase
 482              		.section	.text.detect_sound_phase_shift,"ax",%progbits
 483              		.align	1
 484              		.p2align 4,,15
 485              		.global	detect_sound_phase_shift
 486              		.syntax unified
 487              		.thumb
 488              		.thumb_func
 489              		.fpu fpv4-sp-d16
 490              		.type	detect_sound_phase_shift, %function
 491              	detect_sound_phase_shift:
 492              	.LFB293:
 493              		.loc 1 139 0
 494              		.cfi_startproc
 495              		@ args = 0, pretend = 0, frame = 8
 496              		@ frame_needed = 0, uses_anonymous_args = 0
 497 0000 10B5     		push	{r4, lr}
 498              		.cfi_def_cfa_offset 8
 499              		.cfi_offset 4, -8
 500              		.cfi_offset 14, -4
 501 0002 2DED028B 		vpush.64	{d8}
 502              		.cfi_def_cfa_offset 16
 503              		.cfi_offset 80, -16
 504              		.cfi_offset 81, -12
 505 0006 274B     		ldr	r3, .L53
 506 0008 274C     		ldr	r4, .L53+4
 507 000a 93ED008A 		vldr.32	s16, [r3]
 508              	.LBB23:
 509              	.LBB24:
 510              		.loc 1 128 0
 511 000e D3ED017A 		vldr.32	s15, [r3, #4]
 512              	.LBE24:
 513              	.LBE23:
ARM GAS  /var/folders/bm/0jsfsl512531b6m7ntlrg6_c0000gn/T//cclGJZGf.s 			page 10


 514              		.loc 1 139 0
 515 0012 2368     		ldr	r3, [r4]
 516              	.LBB27:
 517              	.LBB25:
 518              		.loc 1 128 0
 519 0014 C7EE887A 		vdiv.f32	s15, s15, s16
 520              	.LBE25:
 521              	.LBE27:
 522              		.loc 1 139 0
 523 0018 82B0     		sub	sp, sp, #8
 524              		.cfi_def_cfa_offset 24
 525              		.loc 1 139 0
 526 001a 0193     		str	r3, [sp, #4]
 527              	.LVL42:
 528              	.LBB28:
 529              	.LBB26:
 530              		.loc 1 128 0
 531 001c 17EE900A 		vmov	r0, s15
 532 0020 FFF7FEFF 		bl	__aeabi_f2d
 533              	.LVL43:
 534 0024 41EC100B 		vmov	d0, r0, r1
 535 0028 FFF7FEFF 		bl	atan
 536              	.LVL44:
 537 002c 51EC100B 		vmov	r0, r1, d0
 538 0030 FFF7FEFF 		bl	__aeabi_d2f
 539              	.LVL45:
 540              		.loc 1 130 0
 541 0034 B5EEC08A 		vcmpe.f32	s16, #0
 542 0038 F1EE10FA 		vmrs	APSR_nzcv, FPSCR
 543              		.loc 1 132 0
 544 003c 48BF     		it	mi
 545 003e DFED1B7A 		vldrmi.32	s15, .L53+8
 546 0042 1B4B     		ldr	r3, .L53+12
 547              		.loc 1 128 0
 548 0044 08EE900A 		vmov	s17, r0
 549              	.LVL46:
 550 0048 93ED008A 		vldr.32	s16, [r3]
 551              	.LVL47:
 552              		.loc 1 132 0
 553 004c 48BF     		it	mi
 554 004e 78EEA78A 		vaddmi.f32	s17, s17, s15
 555              	.LVL48:
 556              	.LBE26:
 557              	.LBE28:
 558              	.LBB29:
 559              	.LBB30:
 560              		.loc 1 128 0
 561 0052 D3ED017A 		vldr.32	s15, [r3, #4]
 562 0056 C7EE887A 		vdiv.f32	s15, s15, s16
 563 005a 17EE900A 		vmov	r0, s15
 564 005e FFF7FEFF 		bl	__aeabi_f2d
 565              	.LVL49:
 566 0062 41EC100B 		vmov	d0, r0, r1
 567 0066 FFF7FEFF 		bl	atan
 568              	.LVL50:
 569 006a 51EC100B 		vmov	r0, r1, d0
 570 006e FFF7FEFF 		bl	__aeabi_d2f
ARM GAS  /var/folders/bm/0jsfsl512531b6m7ntlrg6_c0000gn/T//cclGJZGf.s 			page 11


 571              	.LVL51:
 572              		.loc 1 130 0
 573 0072 B5EEC08A 		vcmpe.f32	s16, #0
 574 0076 F1EE10FA 		vmrs	APSR_nzcv, FPSCR
 575              		.loc 1 128 0
 576 007a 00EE100A 		vmov	s0, r0
 577              	.LVL52:
 578              		.loc 1 132 0
 579 007e 48BF     		it	mi
 580 0080 DFED0A7A 		vldrmi.32	s15, .L53+8
 581              	.LBE30:
 582              	.LBE29:
 583              		.loc 1 150 0
 584 0084 019A     		ldr	r2, [sp, #4]
 585 0086 2368     		ldr	r3, [r4]
 586              	.LBB32:
 587              	.LBB31:
 588              		.loc 1 132 0
 589 0088 48BF     		it	mi
 590 008a 30EE270A 		vaddmi.f32	s0, s0, s15
 591              	.LVL53:
 592              	.LBE31:
 593              	.LBE32:
 594              		.loc 1 150 0
 595 008e 9A42     		cmp	r2, r3
 596 0090 30EE680A 		vsub.f32	s0, s0, s17
 597              	.LVL54:
 598 0094 03D1     		bne	.L52
 599 0096 02B0     		add	sp, sp, #8
 600              		.cfi_remember_state
 601              		.cfi_def_cfa_offset 16
 602              		@ sp needed
 603 0098 BDEC028B 		vldm	sp!, {d8}
 604              		.cfi_restore 80
 605              		.cfi_restore 81
 606              		.cfi_def_cfa_offset 8
 607 009c 10BD     		pop	{r4, pc}
 608              	.LVL55:
 609              	.L52:
 610              		.cfi_restore_state
 611 009e FFF7FEFF 		bl	__stack_chk_fail
 612              	.LVL56:
 613              	.L54:
 614 00a2 00BF     		.align	2
 615              	.L53:
 616 00a4 00000000 		.word	.LANCHOR2
 617 00a8 00000000 		.word	__stack_chk_guard
 618 00ac DB0F4940 		.word	1078530011
 619 00b0 00000000 		.word	.LANCHOR3
 620              		.cfi_endproc
 621              	.LFE293:
 622              		.size	detect_sound_phase_shift, .-detect_sound_phase_shift
 623              		.section	.text.get_frequency_status,"ax",%progbits
 624              		.align	1
 625              		.p2align 4,,15
 626              		.global	get_frequency_status
 627              		.syntax unified
ARM GAS  /var/folders/bm/0jsfsl512531b6m7ntlrg6_c0000gn/T//cclGJZGf.s 			page 12


 628              		.thumb
 629              		.thumb_func
 630              		.fpu fpv4-sp-d16
 631              		.type	get_frequency_status, %function
 632              	get_frequency_status:
 633              	.LFB294:
 634              		.loc 1 153 0
 635              		.cfi_startproc
 636              		@ args = 0, pretend = 0, frame = 8
 637              		@ frame_needed = 0, uses_anonymous_args = 0
 638 0000 00B5     		push	{lr}
 639              		.cfi_def_cfa_offset 4
 640              		.cfi_offset 14, -4
 641 0002 084B     		ldr	r3, .L59
 642              		.loc 1 154 0
 643 0004 0849     		ldr	r1, .L59+4
 644              		.loc 1 153 0
 645 0006 1A68     		ldr	r2, [r3]
 646              		.loc 1 155 0
 647 0008 91F90000 		ldrsb	r0, [r1]
 648              		.loc 1 153 0
 649 000c 83B0     		sub	sp, sp, #12
 650              		.cfi_def_cfa_offset 16
 651              		.loc 1 153 0
 652 000e 0192     		str	r2, [sp, #4]
 653              		.loc 1 155 0
 654 0010 019A     		ldr	r2, [sp, #4]
 655 0012 1B68     		ldr	r3, [r3]
 656 0014 9A42     		cmp	r2, r3
 657 0016 02D1     		bne	.L58
 658 0018 03B0     		add	sp, sp, #12
 659              		.cfi_remember_state
 660              		.cfi_def_cfa_offset 4
 661              		@ sp needed
 662 001a 5DF804FB 		ldr	pc, [sp], #4
 663              	.L58:
 664              		.cfi_restore_state
 665 001e FFF7FEFF 		bl	__stack_chk_fail
 666              	.LVL57:
 667              	.L60:
 668 0022 00BF     		.align	2
 669              	.L59:
 670 0024 00000000 		.word	__stack_chk_guard
 671 0028 00000000 		.word	.LANCHOR1
 672              		.cfi_endproc
 673              	.LFE294:
 674              		.size	get_frequency_status, .-get_frequency_status
 675              		.section	.bss.frequency_on,"aw",%nobits
 676              		.set	.LANCHOR1,. + 0
 677              		.type	frequency_on, %object
 678              		.size	frequency_on, 1
 679              	frequency_on:
 680 0000 00       		.space	1
 681              		.section	.bss.micLeft_cmplx_input,"aw",%nobits
 682              		.align	2
 683              		.type	micLeft_cmplx_input, %object
 684              		.size	micLeft_cmplx_input, 8192
ARM GAS  /var/folders/bm/0jsfsl512531b6m7ntlrg6_c0000gn/T//cclGJZGf.s 			page 13


 685              	micLeft_cmplx_input:
 686 0000 00000000 		.space	8192
 686      00000000 
 686      00000000 
 686      00000000 
 686      00000000 
 687              		.section	.bss.micLeft_fft_data,"aw",%nobits
 688              		.align	2
 689              		.set	.LANCHOR3,. + 0
 690              		.type	micLeft_fft_data, %object
 691              		.size	micLeft_fft_data, 8
 692              	micLeft_fft_data:
 693 0000 00000000 		.space	8
 693      00000000 
 694              		.section	.bss.micLeft_output,"aw",%nobits
 695              		.align	2
 696              		.type	micLeft_output, %object
 697              		.size	micLeft_output, 4096
 698              	micLeft_output:
 699 0000 00000000 		.space	4096
 699      00000000 
 699      00000000 
 699      00000000 
 699      00000000 
 700              		.section	.bss.micRight_cmplx_input,"aw",%nobits
 701              		.align	2
 702              		.type	micRight_cmplx_input, %object
 703              		.size	micRight_cmplx_input, 8192
 704              	micRight_cmplx_input:
 705 0000 00000000 		.space	8192
 705      00000000 
 705      00000000 
 705      00000000 
 705      00000000 
 706              		.section	.bss.micRight_fft_data,"aw",%nobits
 707              		.align	2
 708              		.set	.LANCHOR2,. + 0
 709              		.type	micRight_fft_data, %object
 710              		.size	micRight_fft_data, 8
 711              	micRight_fft_data:
 712 0000 00000000 		.space	8
 712      00000000 
 713              		.section	.bss.nb_samples.13968,"aw",%nobits
 714              		.align	1
 715              		.set	.LANCHOR0,. + 0
 716              		.type	nb_samples.13968, %object
 717              		.size	nb_samples.13968, 2
 718              	nb_samples.13968:
 719 0000 0000     		.space	2
 720              		.text
 721              	.Letext0:
 722              		.file 2 "/Applications/Eclipse_e-puck2.app/Contents/Eclipse_e-puck2/Tools/gcc-arm-none-eabi-7-2017
 723              		.file 3 "/Applications/Eclipse_e-puck2.app/Contents/Eclipse_e-puck2/Tools/gcc-arm-none-eabi-7-2017
 724              		.file 4 "/Applications/Eclipse_e-puck2.app/Contents/Eclipse_e-puck2/Tools/gcc-arm-none-eabi-7-2017
 725              		.file 5 "/Users/Diane/Desktop/miniprojet/lib/e-puck2_main-processor/ChibiOS//os/rt/ports/ARMCMx/co
 726              		.file 6 "/Users/Diane/Desktop/miniprojet/lib/e-puck2_main-processor/ChibiOS//os/rt/include/chsysty
 727              		.file 7 "/Users/Diane/Desktop/miniprojet/lib/e-puck2_main-processor/ChibiOS//os/rt/include/chschd.
ARM GAS  /var/folders/bm/0jsfsl512531b6m7ntlrg6_c0000gn/T//cclGJZGf.s 			page 14


 728              		.file 8 "/Users/Diane/Desktop/miniprojet/lib/e-puck2_main-processor/ChibiOS//os/ext/CMSIS/include/
 729              		.file 9 "/Users/Diane/Desktop/miniprojet/lib/e-puck2_main-processor/ChibiOS//os/ext/CMSIS/ST/syste
 730              		.file 10 "/Users/Diane/Desktop/miniprojet/lib/e-puck2_main-processor/ChibiOS//os/ext/CMSIS/ST/stm3
 731              		.file 11 "/Users/Diane/Desktop/miniprojet/lib/e-puck2_main-processor/ChibiOS//os/rt/ports/ARMCMx/c
 732              		.file 12 "/Users/Diane/Desktop/miniprojet/lib/e-puck2_main-processor/ChibiOS//os/rt/ports/ARMCMx/c
 733              		.file 13 "/Users/Diane/Desktop/miniprojet/lib/e-puck2_main-processor/ChibiOS//os/rt/include/chdebu
 734              		.file 14 "/Users/Diane/Desktop/miniprojet/lib/e-puck2_main-processor/ChibiOS//os/rt/include/chtm.h
 735              		.file 15 "/Users/Diane/Desktop/miniprojet/lib/e-puck2_main-processor/ChibiOS//os/rt/include/chstat
 736              		.file 16 "/Users/Diane/Desktop/miniprojet/lib/e-puck2_main-processor/ChibiOS//os/rt/include/chsem.
 737              		.file 17 "/Users/Diane/Desktop/miniprojet/lib/e-puck2_main-processor/ChibiOS//os/rt/include/chmtx.
 738              		.file 18 "/Users/Diane/Desktop/miniprojet/lib/e-puck2_main-processor/ChibiOS//os/rt/include/chregi
 739              		.file 19 "/Users/Diane/Desktop/miniprojet/lib/e-puck2_main-processor/ChibiOS//os/rt/include/cheven
 740              		.file 20 "/Users/Diane/Desktop/miniprojet/lib/e-puck2_main-processor/ChibiOS//os/rt/include/chqueu
 741              		.file 21 "/Users/Diane/Desktop/miniprojet/lib/e-puck2_main-processor/ChibiOS//os/hal/ports/STM32/S
 742              		.file 22 "/Users/Diane/Desktop/miniprojet/lib/e-puck2_main-processor/ChibiOS//os/hal/include/hal_i
 743              		.file 23 "/Users/Diane/Desktop/miniprojet/lib/e-puck2_main-processor/ChibiOS//os/hal/ports/STM32/L
 744              		.file 24 "/Users/Diane/Desktop/miniprojet/lib/e-puck2_main-processor/ChibiOS//os/hal/include/adc.h
 745              		.file 25 "/Users/Diane/Desktop/miniprojet/lib/e-puck2_main-processor/ChibiOS//os/hal/ports/STM32/S
 746              		.file 26 "/Users/Diane/Desktop/miniprojet/lib/e-puck2_main-processor/ChibiOS//os/hal/include/can.h
 747              		.file 27 "/Users/Diane/Desktop/miniprojet/lib/e-puck2_main-processor/ChibiOS//os/hal/ports/STM32/L
 748              		.file 28 "/Users/Diane/Desktop/miniprojet/lib/e-puck2_main-processor/ChibiOS//os/hal/include/dac.h
 749              		.file 29 "/Users/Diane/Desktop/miniprojet/lib/e-puck2_main-processor/ChibiOS//os/hal/ports/STM32/L
 750              		.file 30 "/Users/Diane/Desktop/miniprojet/lib/e-puck2_main-processor/ChibiOS//os/hal/include/ext.h
 751              		.file 31 "/Users/Diane/Desktop/miniprojet/lib/e-puck2_main-processor/ChibiOS//os/hal/ports/STM32/L
 752              		.file 32 "/Users/Diane/Desktop/miniprojet/lib/e-puck2_main-processor/ChibiOS//os/hal/include/gpt.h
 753              		.file 33 "/Users/Diane/Desktop/miniprojet/lib/e-puck2_main-processor/ChibiOS//os/hal/ports/STM32/L
 754              		.file 34 "/Users/Diane/Desktop/miniprojet/lib/e-puck2_main-processor/ChibiOS//os/hal/ports/STM32/L
 755              		.file 35 "/Users/Diane/Desktop/miniprojet/lib/e-puck2_main-processor/ChibiOS//os/hal/include/i2c.h
 756              		.file 36 "/Users/Diane/Desktop/miniprojet/lib/e-puck2_main-processor/ChibiOS//os/hal/ports/STM32/L
 757              		.file 37 "/Users/Diane/Desktop/miniprojet/lib/e-puck2_main-processor/ChibiOS//os/hal/include/i2s.h
 758              		.file 38 "/Users/Diane/Desktop/miniprojet/lib/e-puck2_main-processor/ChibiOS//os/hal/ports/STM32/L
 759              		.file 39 "/Users/Diane/Desktop/miniprojet/lib/e-puck2_main-processor/ChibiOS//os/hal/include/pwm.h
 760              		.file 40 "/Users/Diane/Desktop/miniprojet/lib/e-puck2_main-processor/ChibiOS//os/hal/ports/STM32/L
 761              		.file 41 "/Users/Diane/Desktop/miniprojet/lib/e-puck2_main-processor/ChibiOS//os/hal/include/seria
 762              		.file 42 "/Users/Diane/Desktop/miniprojet/lib/e-puck2_main-processor/ChibiOS//os/hal/ports/STM32/L
 763              		.file 43 "/Users/Diane/Desktop/miniprojet/lib/e-puck2_main-processor/ChibiOS//os/hal/include/sdc.h
 764              		.file 44 "/Users/Diane/Desktop/miniprojet/lib/e-puck2_main-processor/ChibiOS//os/hal/ports/STM32/L
 765              		.file 45 "/Users/Diane/Desktop/miniprojet/lib/e-puck2_main-processor/ChibiOS//os/hal/include/spi.h
 766              		.file 46 "/Users/Diane/Desktop/miniprojet/lib/e-puck2_main-processor/ChibiOS//os/hal/ports/STM32/L
 767              		.file 47 "/Users/Diane/Desktop/miniprojet/lib/e-puck2_main-processor/ChibiOS//os/hal/include/usb.h
 768              		.file 48 "/Users/Diane/Desktop/miniprojet/lib/e-puck2_main-processor/ChibiOS//os/hal/ports/STM32/L
 769              		.file 49 "/Users/Diane/Desktop/miniprojet/lib/e-puck2_main-processor/ChibiOS//os/hal/ports/STM32/L
 770              		.file 50 "/Users/Diane/Desktop/miniprojet/lib/e-puck2_main-processor/ChibiOS//os/hal/include/seria
 771              		.file 51 "/Applications/Eclipse_e-puck2.app/Contents/Eclipse_e-puck2/Tools/gcc-arm-none-eabi-7-201
 772              		.file 52 "/Applications/Eclipse_e-puck2.app/Contents/Eclipse_e-puck2/Tools/gcc-arm-none-eabi-7-201
 773              		.file 53 "/Applications/Eclipse_e-puck2.app/Contents/Eclipse_e-puck2/Tools/gcc-arm-none-eabi-7-201
 774              		.file 54 "/Users/Diane/Desktop/miniprojet/lib/e-puck2_main-processor/src/msgbus/messagebus.h"
 775              		.file 55 "/Applications/Eclipse_e-puck2.app/Contents/Eclipse_e-puck2/Tools/gcc-arm-none-eabi-7-201
 776              		.file 56 "/Applications/Eclipse_e-puck2.app/Contents/Eclipse_e-puck2/Tools/gcc-arm-none-eabi-7-201
 777              		.file 57 "/Users/Diane/Desktop/miniprojet/lib/e-puck2_main-processor/src/parameter/parameter.h"
 778              		.file 58 "./main.h"
 779              		.file 59 "/Users/Diane/Desktop/miniprojet/lib/e-puck2_main-processor/src/usbcfg.h"
 780              		.file 60 "sound_detection.h"
 781              		.file 61 "/Applications/Eclipse_e-puck2.app/Contents/Eclipse_e-puck2/Tools/gcc-arm-none-eabi-7-201
 782              		.file 62 "./fft.h"
 783              		.file 63 "/Users/Diane/Desktop/miniprojet/lib/e-puck2_main-processor/ChibiOS//os/ext/CMSIS/include
 784              		.file 64 "/Users/Diane/Desktop/miniprojet/lib/e-puck2_main-processor/ChibiOS//os/rt/include/chthre
ARM GAS  /var/folders/bm/0jsfsl512531b6m7ntlrg6_c0000gn/T//cclGJZGf.s 			page 15

